target datalayout = "e-m:e-p270:32:32-p271:32:32-p272:64:64-i64:64-i128:128-f80:128-n8:16:32:64-S128"
target triple = "x86_64-pc-linux-gnu"

%class.btSequentialImpulseConstraintSolver = type { %class.btConstraintSolver, %class.btAlignedObjectArray, %class.btAlignedObjectArray.0, %class.btAlignedObjectArray.0, %class.btAlignedObjectArray.0, %class.btAlignedObjectArray.0, %class.btAlignedObjectArray.2, %class.btAlignedObjectArray.2, %class.btAlignedObjectArray.2, %class.btAlignedObjectArray.4, i32, i32, %class.btAlignedObjectArray.2, ptr, ptr, ptr, i32, float, i64, %struct.btSolverAnalyticsData }
%class.btConstraintSolver = type { ptr }
%class.btAlignedObjectArray = type <{ [4 x i8], i32, i32, [4 x i8], ptr, i8, [7 x i8] }>
%class.btAlignedObjectArray.0 = type <{ [4 x i8], i32, i32, [4 x i8], ptr, i8, [7 x i8] }>
%class.btAlignedObjectArray.4 = type <{ [4 x i8], i32, i32, [4 x i8], ptr, i8, [7 x i8] }>
%class.btAlignedObjectArray.2 = type <{ [4 x i8], i32, i32, [4 x i8], ptr, i8, [7 x i8] }>
%struct.btSolverAnalyticsData = type { i32, i32, i32, i32, i32, double }

; Function Attrs: mustprogress nounwind uwtable
define dso_local noundef i64 @_ZN35btSequentialImpulseConstraintSolver7btRand2Ev(ptr noundef nonnull align 8 dereferenceable(408) %0) #1 align 2 {
  %2 = alloca ptr, align 8
  store ptr %0, ptr %2, align 8, !tbaa !12
  %3 = load ptr, ptr %2, align 8
  %4 = getelementptr inbounds nuw %class.btSequentialImpulseConstraintSolver, ptr %3, i32 0, i32 18
  %5 = load i64, ptr %4, align 8, !tbaa !39
  %6 = mul i64 1664525, %5
  %7 = add i64 %6, 1013904223
  %8 = and i64 %7, 4294967295
  %9 = getelementptr inbounds nuw %class.btSequentialImpulseConstraintSolver, ptr %3, i32 0, i32 18
  store i64 %8, ptr %9, align 8, !tbaa !39
  %10 = getelementptr inbounds nuw %class.btSequentialImpulseConstraintSolver, ptr %3, i32 0, i32 18
  %11 = load i64, ptr %10, align 8, !tbaa !39
  ret i64 %11
}