; Function Attrs: mustprogress nofree norecurse nosync nounwind willreturn memory(argmem: readwrite) uwtable
define dso_local noundef range(i64 0, 4294967296) i64 @_ZN35btSequentialImpulseConstraintSolver7btRand2Ev(ptr noundef nonnull align 8 captures(none) dereferenceable(408) %0) local_unnamed_addr #6 align 2 {
  %2 = getelementptr inbounds nuw i8, ptr %0, i64 368
  %3 = load i64, ptr %2, align 8, !tbaa !51
  %4 = mul i64 %3, 1664525
  %5 = add i64 %4, 1013904223
  %6 = and i64 %5, 4294967295
  store i64 %6, ptr %2, align 8, !tbaa !51
  ret i64 %6
}